target datalayout = "e-m:e-p270:32:32-p271:32:32-p272:64:64-i64:64-i128:128-f80:128-n8:16:32:64-S128"
target triple = "x86_64-pc-linux-gnu"

%struct._typeobject = type { %struct.PyVarObject, ptr, i64, i64, ptr, i64, ptr, ptr, ptr, ptr, ptr, ptr, ptr, ptr, ptr, ptr, ptr, ptr, ptr, i64, ptr, ptr, ptr, ptr, i64, ptr, ptr, ptr, ptr, ptr, ptr, ptr, ptr, ptr, i64, ptr, ptr, ptr, ptr, ptr, ptr, ptr, ptr, ptr, ptr, ptr, i32, ptr, ptr, i8, i16 }
%struct.PyVarObject = type { %struct._object, i64 }
%struct._object = type { %union.anon, ptr }
%union.anon = type { i64 }
%struct.PyNumberMethods = type { ptr, ptr, ptr, ptr, ptr, ptr, ptr, ptr, ptr, ptr, ptr, ptr, ptr, ptr, ptr, ptr, ptr, ptr, ptr, ptr, ptr, ptr, ptr, ptr, ptr, ptr, ptr, ptr, ptr, ptr, ptr, ptr, ptr, ptr, ptr, ptr }

@PyLong_Type = external global %struct._typeobject, align 8
@_Py_FalseStruct = dso_local global { %struct._object, { i64, [1 x i32], [4 x i8] } } { %struct._object { %union.anon { i64 552977039360 }, ptr @PyBool_Type }, { i64, [1 x i32], [4 x i8] } { i64 1, [1 x i32] zeroinitializer, [4 x i8] zeroinitializer } }, align 8
@_Py_TrueStruct = dso_local global { %struct._object, { i64, [1 x i32], [4 x i8] } } { %struct._object { %union.anon { i64 552977039360 }, ptr @PyBool_Type }, { i64, [1 x i32], [4 x i8] } { i64 8, [1 x i32] [i32 1], [4 x i8] zeroinitializer } }, align 8

; Function Attrs: inlinehint nounwind uwtable
define internal ptr @_Py_TYPE(ptr noundef %0) #2 {
  %2 = alloca ptr, align 8
  store ptr %0, ptr %2, align 8, !tbaa !8
  %3 = load ptr, ptr %2, align 8, !tbaa !8
  %4 = getelementptr inbounds nuw %struct._object, ptr %3, i32 0, i32 1
  %5 = load ptr, ptr %4, align 8, !tbaa !30
  ret ptr %5
}

; Function Attrs: nounwind uwtable
define dso_local ptr @PyBool_FromLong(i64 noundef %0) #0 {
  %2 = alloca i64, align 8
  store i64 %0, ptr %2, align 8, !tbaa !4
  %3 = load i64, ptr %2, align 8, !tbaa !4
  %4 = icmp ne i64 %3, 0
  %5 = select i1 %4, ptr @_Py_TrueStruct, ptr @_Py_FalseStruct
  ret ptr %5
}

; Function Attrs: inlinehint nounwind uwtable
define internal i32 @Py_IS_TYPE(ptr noundef %0, ptr noundef %1) #2 {
  %3 = alloca ptr, align 8
  %4 = alloca ptr, align 8
  store ptr %0, ptr %3, align 8, !tbaa !8
  store ptr %1, ptr %4, align 8, !tbaa !11
  %5 = load ptr, ptr %3, align 8, !tbaa !8
  %6 = call ptr @_Py_TYPE(ptr noundef %5)
  %7 = load ptr, ptr %4, align 8, !tbaa !11
  %8 = icmp eq ptr %6, %7
  %9 = zext i1 %8 to i32
  ret i32 %9
}

; Function Attrs: nounwind uwtable
define internal ptr @bool_or(ptr noundef %0, ptr noundef %1) #0 {
  %3 = alloca ptr, align 8
  %4 = alloca ptr, align 8
  %5 = alloca ptr, align 8
  store ptr %0, ptr %4, align 8, !tbaa !8
  store ptr %1, ptr %5, align 8, !tbaa !8
  %6 = load ptr, ptr %4, align 8, !tbaa !8
  %7 = call i32 @Py_IS_TYPE(ptr noundef %6, ptr noundef @PyBool_Type)
  %8 = icmp ne i32 %7, 0
  br i1 %8, label %9, label %13

9:                                                ; preds = %2
  %10 = load ptr, ptr %5, align 8, !tbaa !8
  %11 = call i32 @Py_IS_TYPE(ptr noundef %10, ptr noundef @PyBool_Type)
  %12 = icmp ne i32 %11, 0
  br i1 %12, label %20, label %13

13:                                               ; preds = %9, %2
  %14 = load ptr, ptr getelementptr inbounds nuw (%struct._typeobject, ptr @PyLong_Type, i32 0, i32 10), align 8, !tbaa !15
  %15 = getelementptr inbounds nuw %struct.PyNumberMethods, ptr %14, i32 0, i32 15
  %16 = load ptr, ptr %15, align 8, !tbaa !29
  %17 = load ptr, ptr %4, align 8, !tbaa !8
  %18 = load ptr, ptr %5, align 8, !tbaa !8
  %19 = call ptr %16(ptr noundef %17, ptr noundef %18)
  store ptr %19, ptr %3, align 8
  br label %30

20:                                               ; preds = %9
  %21 = load ptr, ptr %4, align 8, !tbaa !8
  %22 = icmp eq ptr %21, @_Py_TrueStruct
  %23 = zext i1 %22 to i32
  %24 = load ptr, ptr %5, align 8, !tbaa !8
  %25 = icmp eq ptr %24, @_Py_TrueStruct
  %26 = zext i1 %25 to i32
  %27 = or i32 %23, %26
  %28 = sext i32 %27 to i64
  %29 = call ptr @PyBool_FromLong(i64 noundef %28)
  store ptr %29, ptr %3, align 8
  br label %30

30:                                               ; preds = %20, %13
  %31 = load ptr, ptr %3, align 8
  ret ptr %31
}