; Function Attrs: nounwind uwtable
define internal ptr @bool_or(ptr noundef %0, ptr noundef %1) #1 {
  %3 = getelementptr i8, ptr %0, i64 8
  %.val = load ptr, ptr %3, align 8, !tbaa !23
  %.not = icmp eq ptr %.val, @PyBool_Type
  br i1 %.not, label %4, label %6

4:                                                ; preds = %2
  %5 = getelementptr i8, ptr %1, i64 8
  %.val8 = load ptr, ptr %5, align 8, !tbaa !23
  %.not9 = icmp eq ptr %.val8, @PyBool_Type
  br i1 %.not9, label %11, label %6

6:                                                ; preds = %4, %2
  %7 = load ptr, ptr getelementptr inbounds nuw (i8, ptr @PyLong_Type, i64 96), align 8, !tbaa !9
  %8 = getelementptr inbounds nuw i8, ptr %7, i64 120
  %9 = load ptr, ptr %8, align 8, !tbaa !26
  %10 = tail call ptr %9(ptr noundef nonnull %0, ptr noundef %1) #4
  br label %15

11:                                               ; preds = %4
  %12 = icmp ne ptr %0, @_Py_TrueStruct
  %13 = icmp ne ptr %1, @_Py_TrueStruct
  %.not12 = and i1 %12, %13
  %14 = select i1 %.not12, ptr @_Py_FalseStruct, ptr @_Py_TrueStruct
  br label %15

15:                                               ; preds = %11, %6
  %.0 = phi ptr [ %14, %11 ], [ %10, %6 ]
  ret ptr %.0
}